; Function Attrs: nounwind uwtable
define dso_local void @activeDefragZsetEntry(ptr noundef readonly captures(none) %0, ptr noundef %1) local_unnamed_addr #0 {
  %3 = tail call ptr @dictGetKey(ptr noundef %1) #10
  %4 = tail call ptr @sdsAllocPtr(ptr noundef %3) #10
  %5 = tail call i32 @je_get_defrag_hint(ptr noundef %4) #10
  %.not.i.i = icmp eq i32 %5, 0
  br i1 %.not.i.i, label %activeDefragSds.exit.thread, label %activeDefragSds.exit

activeDefragSds.exit.thread:                      ; preds = %2
  %6 = load i64, ptr getelementptr inbounds nuw (i8, ptr @server, i64 2592), align 8, !tbaa !5
  %7 = add nsw i64 %6, 1
  store i64 %7, ptr getelementptr inbounds nuw (i8, ptr @server, i64 2592), align 8, !tbaa !5
  br label %.split

activeDefragSds.exit:                             ; preds = %2
  %8 = tail call i64 @je_malloc_usable_size(ptr noundef %4) #10
  %9 = tail call noalias ptr @zmalloc_no_tcache(i64 noundef %8) #10
  tail call void @llvm.memcpy.p0.p0.i64(ptr align 1 %9, ptr align 1 %4, i64 %8, i1 false)
  tail call void @zfree_no_tcache(ptr noundef %4) #10
  %10 = load i64, ptr getelementptr inbounds nuw (i8, ptr @server, i64 2584), align 8, !tbaa !38
  %11 = add nsw i64 %10, 1
  store i64 %11, ptr getelementptr inbounds nuw (i8, ptr @server, i64 2584), align 8, !tbaa !38
  %.not16 = icmp eq ptr %9, null
  br i1 %.not16, label %.split, label %.split14

.split14:                                         ; preds = %activeDefragSds.exit
  %12 = ptrtoint ptr %3 to i64
  %13 = ptrtoint ptr %4 to i64
  %14 = sub i64 %12, %13
  %15 = getelementptr inbounds nuw i8, ptr %9, i64 %14
  %16 = load ptr, ptr %0, align 8, !tbaa !64
  tail call void @dictSetKey(ptr noundef %16, ptr noundef %1, ptr noundef nonnull %15) #10
  br label %.split

.split:                                           ; preds = %activeDefragSds.exit, %activeDefragSds.exit.thread, %.split14
  %.sink20 = phi ptr [ %15, %.split14 ], [ null, %activeDefragSds.exit.thread ], [ null, %activeDefragSds.exit ]
  %17 = getelementptr inbounds nuw i8, ptr %0, i64 8
  %18 = load ptr, ptr %17, align 8, !tbaa !67
  %19 = tail call ptr @dictGetVal(ptr noundef %1) #10
  %20 = load double, ptr %19, align 8, !tbaa !62
  %21 = tail call ptr @zslDefrag(ptr noundef %18, double noundef %20, ptr noundef %3, ptr noundef %.sink20)
  %.not15 = icmp eq ptr %21, null
  br i1 %.not15, label %24, label %22

22:                                               ; preds = %.split
  %23 = load ptr, ptr %0, align 8, !tbaa !64
  tail call void @dictSetVal(ptr noundef %23, ptr noundef %1, ptr noundef nonnull %21) #10
  br label %24

24:                                               ; preds = %22, %.split
  ret void
}